target datalayout = "e-m:e-p270:32:32-p271:32:32-p272:64:64-i64:64-i128:128-f80:128-n8:16:32:64-S128"
target triple = "x86_64-pc-linux-gnu"

%struct._php_stream_ops = type { ptr, ptr, ptr, ptr, ptr, ptr, ptr, ptr, ptr }
%struct._php_stream_wrapper_ops = type { ptr, ptr, ptr, ptr, ptr, ptr, ptr, ptr, ptr, ptr, ptr }
%struct._php_stream_wrapper = type { ptr, ptr, i32 }

@php_glob_stream_wrapper = external constant %struct._php_stream_wrapper, align 8
@php_plain_files_dirstream_ops = internal constant %struct._php_stream_ops { ptr null, ptr @php_plain_files_dirstream_read, ptr @php_plain_files_dirstream_close, ptr null, ptr @.str.17, ptr @php_plain_files_dirstream_rewind, ptr null, ptr null, ptr null }, align 8

; Function Attrs: nounwind uwtable
define internal ptr @php_plain_files_dir_opener(ptr noundef %0, ptr noundef %1, ptr noundef %2, i32 noundef %3, ptr noundef %4, ptr noundef %5) #0 {
  %7 = alloca ptr, align 8
  %8 = alloca ptr, align 8
  %9 = alloca ptr, align 8
  %10 = alloca ptr, align 8
  %11 = alloca i32, align 4
  %12 = alloca ptr, align 8
  %13 = alloca ptr, align 8
  %14 = alloca ptr, align 8
  %15 = alloca ptr, align 8
  %16 = alloca i32, align 4
  store ptr %0, ptr %8, align 8, !tbaa !71
  store ptr %1, ptr %9, align 8, !tbaa !4
  store ptr %2, ptr %10, align 8, !tbaa !4
  store i32 %3, ptr %11, align 4, !tbaa !12
  store ptr %4, ptr %12, align 8, !tbaa !14
  store ptr %5, ptr %13, align 8, !tbaa !72
  call void @llvm.lifetime.start.p0(i64 8, ptr %14) #13
  store ptr null, ptr %14, align 8, !tbaa !74
  call void @llvm.lifetime.start.p0(i64 8, ptr %15) #13
  store ptr null, ptr %15, align 8, !tbaa !18
  %17 = load i32, ptr %11, align 4, !tbaa !12
  %18 = and i32 %17, 4096
  %19 = icmp ne i32 %18, 0
  br i1 %19, label %20, label %30

20:                                               ; preds = %6
  %21 = load ptr, ptr @php_glob_stream_wrapper, align 8, !tbaa !76
  %22 = getelementptr inbounds nuw %struct._php_stream_wrapper_ops, ptr %21, i32 0, i32 4
  %23 = load ptr, ptr %22, align 8, !tbaa !79
  %24 = load ptr, ptr %9, align 8, !tbaa !4
  %25 = load ptr, ptr %10, align 8, !tbaa !4
  %26 = load i32, ptr %11, align 4, !tbaa !12
  %27 = load ptr, ptr %12, align 8, !tbaa !14
  %28 = load ptr, ptr %13, align 8, !tbaa !72
  %29 = call ptr %23(ptr noundef @php_glob_stream_wrapper, ptr noundef %24, ptr noundef %25, i32 noundef %26, ptr noundef %27, ptr noundef %28)
  store ptr %29, ptr %7, align 8
  store i32 1, ptr %16, align 4
  br label %56

30:                                               ; preds = %6
  %31 = load i32, ptr %11, align 4, !tbaa !12
  %32 = and i32 %31, 1024
  %33 = icmp eq i32 %32, 0
  br i1 %33, label %34, label %39

34:                                               ; preds = %30
  %35 = load ptr, ptr %9, align 8, !tbaa !4
  %36 = call i32 @php_check_open_basedir(ptr noundef %35)
  %37 = icmp ne i32 %36, 0
  br i1 %37, label %38, label %39

38:                                               ; preds = %34
  store ptr null, ptr %7, align 8
  store i32 1, ptr %16, align 4
  br label %56

39:                                               ; preds = %34, %30
  %40 = load ptr, ptr %9, align 8, !tbaa !4
  %41 = call ptr @opendir(ptr noundef %40)
  store ptr %41, ptr %14, align 8, !tbaa !74
  %42 = load ptr, ptr %14, align 8, !tbaa !74
  %43 = icmp ne ptr %42, null
  br i1 %43, label %44, label %54

44:                                               ; preds = %39
  %45 = load ptr, ptr %14, align 8, !tbaa !74
  %46 = load ptr, ptr %10, align 8, !tbaa !4
  %47 = call ptr @_php_stream_alloc(ptr noundef @php_plain_files_dirstream_ops, ptr noundef %45, ptr noundef null, ptr noundef %46)
  store ptr %47, ptr %15, align 8, !tbaa !18
  %48 = load ptr, ptr %15, align 8, !tbaa !18
  %49 = icmp eq ptr %48, null
  br i1 %49, label %50, label %53

50:                                               ; preds = %44
  %51 = load ptr, ptr %14, align 8, !tbaa !74
  %52 = call i32 @closedir(ptr noundef %51)
  br label %53

53:                                               ; preds = %50, %44
  br label %54

54:                                               ; preds = %53, %39
  %55 = load ptr, ptr %15, align 8, !tbaa !18
  store ptr %55, ptr %7, align 8
  store i32 1, ptr %16, align 4
  br label %56

56:                                               ; preds = %54, %38, %20
  call void @llvm.lifetime.end.p0(i64 8, ptr %15) #13
  call void @llvm.lifetime.end.p0(i64 8, ptr %14) #13
  %57 = load ptr, ptr %7, align 8
  ret ptr %57
}