; Function Attrs: nounwind uwtable
define internal ptr @php_plain_files_dir_opener(ptr readnone captures(none) %0, ptr noundef %1, ptr noundef %2, i32 noundef %3, ptr noundef %4, ptr noundef %5) #3 {
  %7 = and i32 %3, 4096
  %.not = icmp eq i32 %7, 0
  br i1 %.not, label %13, label %8

8:                                                ; preds = %6
  %9 = load ptr, ptr @php_glob_stream_wrapper, align 8, !tbaa !54
  %10 = getelementptr inbounds nuw i8, ptr %9, i64 32
  %11 = load ptr, ptr %10, align 8, !tbaa !57
  %12 = tail call ptr %11(ptr noundef nonnull @php_glob_stream_wrapper, ptr noundef %1, ptr noundef %2, i32 noundef %3, ptr noundef %4, ptr noundef %5) #17
  br label %25

13:                                               ; preds = %6
  %14 = and i32 %3, 1024
  %15 = icmp eq i32 %14, 0
  br i1 %15, label %16, label %18

16:                                               ; preds = %13
  %17 = tail call i32 @php_check_open_basedir(ptr noundef %1) #17
  %.not18 = icmp eq i32 %17, 0
  br i1 %.not18, label %18, label %25

18:                                               ; preds = %16, %13
  %19 = tail call ptr @opendir(ptr noundef %1)
  %.not19 = icmp eq ptr %19, null
  br i1 %.not19, label %25, label %20

20:                                               ; preds = %18
  %21 = tail call ptr @_php_stream_alloc(ptr noundef nonnull @php_plain_files_dirstream_ops, ptr noundef nonnull %19, ptr noundef null, ptr noundef %2) #17
  %22 = icmp eq ptr %21, null
  br i1 %22, label %23, label %25

23:                                               ; preds = %20
  %24 = tail call i32 @closedir(ptr noundef nonnull %19)
  br label %25

25:                                               ; preds = %18, %23, %20, %16, %8
  %.015 = phi ptr [ %12, %8 ], [ null, %16 ], [ null, %23 ], [ %21, %20 ], [ null, %18 ]
  ret ptr %.015
}